; Function Attrs: nofree norecurse nosync nounwind memory(argmem: read) uwtable
define dso_local range(i32 0, 2) i32 @HUF_validateCTable(ptr noundef readonly captures(none) %0, ptr noundef readonly captures(none) %1, i32 noundef %2) local_unnamed_addr #6 {
  %4 = getelementptr inbounds nuw i8, ptr %0, i64 8
  %.not11 = icmp slt i32 %2, 0
  br i1 %.not11, label %._crit_edge, label %.lr.ph.preheader

.lr.ph.preheader:                                 ; preds = %3
  %5 = add nuw i32 %2, 1
  %wide.trip.count = zext i32 %5 to i64
  br label %.lr.ph

.lr.ph:                                           ; preds = %.lr.ph.preheader, %.lr.ph
  %indvars.iv = phi i64 [ 0, %.lr.ph.preheader ], [ %indvars.iv.next, %.lr.ph ]
  %.0912 = phi i32 [ 0, %.lr.ph.preheader ], [ %15, %.lr.ph ]
  %6 = getelementptr inbounds nuw i32, ptr %1, i64 %indvars.iv
  %7 = load i32, ptr %6, align 4, !tbaa !12
  %8 = icmp ne i32 %7, 0
  %9 = getelementptr inbounds nuw i64, ptr %4, i64 %indvars.iv
  %10 = load i64, ptr %9, align 8, !tbaa !9
  %11 = and i64 %10, 255
  %12 = icmp eq i64 %11, 0
  %13 = and i1 %8, %12
  %14 = zext i1 %13 to i32
  %15 = or i32 %.0912, %14
  %indvars.iv.next = add nuw nsw i64 %indvars.iv, 1
  %exitcond.not = icmp eq i64 %indvars.iv.next, %wide.trip.count
  br i1 %exitcond.not, label %._crit_edge.loopexit, label %.lr.ph, !llvm.loop !52

._crit_edge.loopexit:                             ; preds = %.lr.ph
  %16 = icmp eq i32 %15, 0
  %17 = zext i1 %16 to i32
  br label %._crit_edge

._crit_edge:                                      ; preds = %._crit_edge.loopexit, %3
  %.09.lcssa = phi i32 [ 1, %3 ], [ %17, %._crit_edge.loopexit ]
  ret i32 %.09.lcssa
}